; Function Attrs: mustprogress uwtable
define internal void @_ZL17ChannelIdCallbackP6ssl_stPP11evp_pkey_st(ptr noundef %0, ptr noundef writeonly captures(none) initializes((0, 8)) %1) #10 {
  %3 = load i32, ptr @_ZL13g_state_index, align 4, !tbaa !6
  %4 = tail call noundef ptr @SSL_get_ex_data(ptr noundef %0, i32 noundef %3)
  %5 = getelementptr inbounds nuw i8, ptr %4, i64 40
  %6 = load ptr, ptr %5, align 8, !tbaa !97
  store ptr null, ptr %5, align 8, !tbaa !97
  store ptr %6, ptr %1, align 8, !tbaa !97
  ret void
}